target datalayout = "e-m:e-p270:32:32-p271:32:32-p272:64:64-i64:64-i128:128-f80:128-n8:16:32:64-S128"
target triple = "x86_64-pc-linux-gnu"

%struct.rb_iseq_struct = type { i64, i64, ptr, %union.anon.15 }
%union.anon.15 = type { %struct.anon.16 }
%struct.anon.16 = type { i64, i32 }
%struct.rb_iseq_constant_body = type { i32, i32, ptr, %struct.anon.18, %struct.rb_iseq_location_struct, %struct.iseq_insn_info, ptr, ptr, ptr, ptr, ptr, ptr, %struct.anon.19, i32, i32, i32, i32, i32, i32, i32, i32, i8, %union.anon.20, ptr, ptr, ptr, i64, ptr, i64, ptr, i64 }
%struct.anon.18 = type { %struct.anon, i32, i32, i32, i32, i32, i32, i32, ptr, ptr }
%struct.anon = type { i16, [2 x i8] }
%struct.rb_iseq_location_struct = type { i64, i64, i64, i32, i32, %struct.rb_code_location_struct }
%struct.rb_code_location_struct = type { %struct.rb_code_position_struct, %struct.rb_code_position_struct }
%struct.rb_code_position_struct = type { i32, i32 }
%struct.iseq_insn_info = type { ptr, ptr, i32, ptr }
%struct.anon.19 = type { i64, i64, i64, i64, ptr }
%union.anon.20 = type { ptr }
%struct.rb_callable_method_entry_struct = type { i64, i64, ptr, i64, i64 }
%struct.rb_method_definition_struct = type { i64, %union.anon, i64, i64 }
%union.anon = type { %struct.rb_method_cfunc_struct }
%struct.rb_method_cfunc_struct = type { ptr, ptr, i32 }
%struct.rb_callcache = type { i64, i64, ptr, ptr, %union.anon.21 }
%union.anon.21 = type { %struct.anon.22 }
%struct.anon.22 = type { i64 }
%struct.rb_calling_info = type { ptr, ptr, i64, i64, i32, i8, i64 }
%struct.rb_method_iseq_struct = type { ptr, ptr }

; Function Attrs: inlinehint nounwind sspstrong uwtable
define internal ptr @rb_iseq_check(ptr noundef %0) #2 {
  %2 = alloca ptr, align 8
  store ptr %0, ptr %2, align 8, !tbaa !78
  %3 = load ptr, ptr %2, align 8, !tbaa !78
  ret ptr %3
}

; Function Attrs: inlinehint nounwind sspstrong uwtable
define internal ptr @def_iseq_ptr(ptr noundef %0) #2 {
  %2 = alloca ptr, align 8
  store ptr %0, ptr %2, align 8, !tbaa !185
  %3 = load ptr, ptr %2, align 8, !tbaa !185
  %4 = getelementptr inbounds nuw %struct.rb_method_definition_struct, ptr %3, i32 0, i32 1
  %5 = getelementptr inbounds nuw %struct.rb_method_iseq_struct, ptr %4, i32 0, i32 0
  %6 = load ptr, ptr %5, align 8, !tbaa !58
  %7 = call ptr @rb_iseq_check(ptr noundef %6)
  ret ptr %7
}

; Function Attrs: inlinehint nounwind sspstrong uwtable
define internal ptr @vm_cc_cme(ptr noundef %0) #2 {
  %2 = alloca ptr, align 8
  store ptr %0, ptr %2, align 8, !tbaa !144
  %3 = load ptr, ptr %2, align 8, !tbaa !144
  %4 = getelementptr inbounds nuw %struct.rb_callcache, ptr %3, i32 0, i32 2
  %5 = load ptr, ptr %4, align 8, !tbaa !351
  ret ptr %5
}

; Function Attrs: nounwind sspstrong uwtable
define internal i64 @vm_call_iseq_setup_tailcall_opt_start(ptr noundef %0, ptr noundef %1, ptr noundef %2) #0 {
  %4 = alloca ptr, align 8
  %5 = alloca ptr, align 8
  %6 = alloca ptr, align 8
  %7 = alloca ptr, align 8
  %8 = alloca ptr, align 8
  %9 = alloca i32, align 4
  %10 = alloca i32, align 4
  %11 = alloca i32, align 4
  store ptr %0, ptr %4, align 8, !tbaa !33
  store ptr %1, ptr %5, align 8, !tbaa !14
  store ptr %2, ptr %6, align 8, !tbaa !186
  call void @llvm.lifetime.start.p0(i64 8, ptr %7) #21
  %12 = load ptr, ptr %6, align 8, !tbaa !186
  %13 = getelementptr inbounds nuw %struct.rb_calling_info, ptr %12, i32 0, i32 1
  %14 = load ptr, ptr %13, align 8, !tbaa !216
  store ptr %14, ptr %7, align 8, !tbaa !144
  call void @llvm.lifetime.start.p0(i64 8, ptr %8) #21
  %15 = load ptr, ptr %7, align 8, !tbaa !144
  %16 = call ptr @vm_cc_cme(ptr noundef %15)
  %17 = getelementptr inbounds nuw %struct.rb_callable_method_entry_struct, ptr %16, i32 0, i32 2
  %18 = load ptr, ptr %17, align 8, !tbaa !168
  %19 = call ptr @def_iseq_ptr(ptr noundef %18)
  store ptr %19, ptr %8, align 8, !tbaa !78
  call void @llvm.lifetime.start.p0(i64 4, ptr %9) #21
  %20 = load ptr, ptr %8, align 8, !tbaa !78
  %21 = getelementptr inbounds nuw %struct.rb_iseq_struct, ptr %20, i32 0, i32 2
  %22 = load ptr, ptr %21, align 8, !tbaa !81
  %23 = getelementptr inbounds nuw %struct.rb_iseq_constant_body, ptr %22, i32 0, i32 3
  %24 = getelementptr inbounds nuw %struct.anon.18, ptr %23, i32 0, i32 2
  %25 = load i32, ptr %24, align 8, !tbaa !337
  store i32 %25, ptr %9, align 4, !tbaa !24
  call void @llvm.lifetime.start.p0(i64 4, ptr %10) #21
  %26 = load ptr, ptr %6, align 8, !tbaa !186
  %27 = getelementptr inbounds nuw %struct.rb_calling_info, ptr %26, i32 0, i32 4
  %28 = load i32, ptr %27, align 8, !tbaa !219
  %29 = load i32, ptr %9, align 4, !tbaa !24
  %30 = sub i32 %28, %29
  store i32 %30, ptr %10, align 4, !tbaa !24
  call void @llvm.lifetime.start.p0(i64 4, ptr %11) #21
  %31 = load ptr, ptr %8, align 8, !tbaa !78
  %32 = getelementptr inbounds nuw %struct.rb_iseq_struct, ptr %31, i32 0, i32 2
  %33 = load ptr, ptr %32, align 8, !tbaa !81
  %34 = getelementptr inbounds nuw %struct.rb_iseq_constant_body, ptr %33, i32 0, i32 3
  %35 = getelementptr inbounds nuw %struct.anon.18, ptr %34, i32 0, i32 8
  %36 = load ptr, ptr %35, align 8, !tbaa !636
  %37 = load i32, ptr %10, align 4, !tbaa !24
  %38 = sext i32 %37 to i64
  %39 = getelementptr i64, ptr %36, i64 %38
  %40 = load i64, ptr %39, align 8, !tbaa !31
  %41 = trunc i64 %40 to i32
  store i32 %41, ptr %11, align 4, !tbaa !24
  %42 = load ptr, ptr %4, align 8, !tbaa !33
  %43 = load ptr, ptr %5, align 8, !tbaa !14
  %44 = load ptr, ptr %6, align 8, !tbaa !186
  %45 = load i32, ptr %11, align 4, !tbaa !24
  %46 = call i64 @vm_call_iseq_setup_tailcall(ptr noundef %42, ptr noundef %43, ptr noundef %44, i32 noundef %45)
  call void @llvm.lifetime.end.p0(i64 4, ptr %11) #21
  call void @llvm.lifetime.end.p0(i64 4, ptr %10) #21
  call void @llvm.lifetime.end.p0(i64 4, ptr %9) #21
  call void @llvm.lifetime.end.p0(i64 8, ptr %8) #21
  call void @llvm.lifetime.end.p0(i64 8, ptr %7) #21
  ret i64 %46
}