; Function Attrs: nounwind sspstrong uwtable
define internal noundef i64 @vm_call_iseq_setup_tailcall_opt_start(ptr noundef captures(none) initializes((16, 24)) %0, ptr noundef %1, ptr noundef captures(none) %2) #2 {
  %4 = getelementptr inbounds nuw i8, ptr %2, i64 8
  %5 = load ptr, ptr %4, align 8, !tbaa !219
  %6 = getelementptr i8, ptr %5, i64 16
  %.val = load ptr, ptr %6, align 8, !tbaa !218
  %7 = getelementptr inbounds nuw i8, ptr %.val, i64 16
  %8 = load ptr, ptr %7, align 8, !tbaa !101
  %9 = getelementptr i8, ptr %8, i64 8
  %.val10 = load ptr, ptr %9, align 8, !tbaa !26
  %10 = getelementptr inbounds nuw i8, ptr %.val10, i64 16
  %11 = load ptr, ptr %10, align 8, !tbaa !73
  %12 = getelementptr inbounds nuw i8, ptr %11, i64 24
  %13 = load i32, ptr %12, align 8, !tbaa !177
  %14 = getelementptr inbounds nuw i8, ptr %2, i64 32
  %15 = load i32, ptr %14, align 8, !tbaa !213
  %16 = sub i32 %15, %13
  %17 = getelementptr inbounds nuw i8, ptr %11, i64 48
  %18 = load ptr, ptr %17, align 8, !tbaa !625
  %19 = sext i32 %16 to i64
  %20 = getelementptr i64, ptr %18, i64 %19
  %21 = load i64, ptr %20, align 8, !tbaa !7
  %22 = trunc i64 %21 to i32
  tail call fastcc void @vm_call_iseq_setup_tailcall(ptr noundef %0, ptr noundef %1, ptr noundef %2, i32 noundef %22)
  ret i64 36
}